target datalayout = "e-m:e-p270:32:32-p271:32:32-p272:64:64-i64:64-i128:128-f80:128-n8:16:32:64-S128"
target triple = "x86_64-pc-linux-gnu"

%"class.cv::detail::tracking::online_boosting::EstimatedGaussDistribution" = type { ptr, float, float, float, float, float, float }

; Function Attrs: mustprogress nounwind uwtable
define hidden void @_ZN2cv6detail8tracking15online_boosting26EstimatedGaussDistributionC2Effff(ptr noundef nonnull align 8 dereferenceable(32) %0, float noundef %1, float noundef %2, float noundef %3, float noundef %4) unnamed_addr #5 align 2 {
  %6 = alloca ptr, align 8
  %7 = alloca float, align 4
  %8 = alloca float, align 4
  %9 = alloca float, align 4
  %10 = alloca float, align 4
  store ptr %0, ptr %6, align 8, !tbaa !157
  store float %1, ptr %7, align 4, !tbaa !38
  store float %2, ptr %8, align 4, !tbaa !38
  store float %3, ptr %9, align 4, !tbaa !38
  store float %4, ptr %10, align 4, !tbaa !38
  %11 = load ptr, ptr %6, align 8
  store ptr getelementptr inbounds inrange(-16, 16) ({ [4 x ptr] }, ptr @_ZTVN2cv6detail8tracking15online_boosting26EstimatedGaussDistributionE, i32 0, i32 0, i32 2), ptr %11, align 8, !tbaa !14
  %12 = getelementptr inbounds nuw %"class.cv::detail::tracking::online_boosting::EstimatedGaussDistribution", ptr %11, i32 0, i32 1
  store float 0.000000e+00, ptr %12, align 8, !tbaa !159
  %13 = getelementptr inbounds nuw %"class.cv::detail::tracking::online_boosting::EstimatedGaussDistribution", ptr %11, i32 0, i32 2
  store float 1.000000e+00, ptr %13, align 4, !tbaa !161
  %14 = load float, ptr %7, align 4, !tbaa !38
  %15 = getelementptr inbounds nuw %"class.cv::detail::tracking::online_boosting::EstimatedGaussDistribution", ptr %11, i32 0, i32 3
  store float %14, ptr %15, align 8, !tbaa !162
  %16 = load float, ptr %8, align 4, !tbaa !38
  %17 = getelementptr inbounds nuw %"class.cv::detail::tracking::online_boosting::EstimatedGaussDistribution", ptr %11, i32 0, i32 5
  store float %16, ptr %17, align 8, !tbaa !163
  %18 = load float, ptr %9, align 4, !tbaa !38
  %19 = getelementptr inbounds nuw %"class.cv::detail::tracking::online_boosting::EstimatedGaussDistribution", ptr %11, i32 0, i32 4
  store float %18, ptr %19, align 4, !tbaa !164
  %20 = load float, ptr %10, align 4, !tbaa !38
  %21 = getelementptr inbounds nuw %"class.cv::detail::tracking::online_boosting::EstimatedGaussDistribution", ptr %11, i32 0, i32 6
  store float %20, ptr %21, align 4, !tbaa !165
  ret void
}