; Function Attrs: mustprogress nofree norecurse nosync nounwind willreturn memory(argmem: write) uwtable
define hidden void @_ZN2cv6detail8tracking15online_boosting26EstimatedGaussDistributionC2Effff(ptr noundef nonnull writeonly align 8 captures(none) dereferenceable(32) initializes((0, 32)) %0, float noundef %1, float noundef %2, float noundef %3, float noundef %4) unnamed_addr #16 align 2 {
  store ptr getelementptr inbounds nuw inrange(-16, 16) (i8, ptr @_ZTVN2cv6detail8tracking15online_boosting26EstimatedGaussDistributionE, i64 16), ptr %0, align 8, !tbaa !3
  %6 = getelementptr inbounds nuw i8, ptr %0, i64 8
  store float 0.000000e+00, ptr %6, align 8, !tbaa !127
  %7 = getelementptr inbounds nuw i8, ptr %0, i64 12
  store float 1.000000e+00, ptr %7, align 4, !tbaa !130
  %8 = getelementptr inbounds nuw i8, ptr %0, i64 16
  store float %1, ptr %8, align 8, !tbaa !124
  %9 = getelementptr inbounds nuw i8, ptr %0, i64 24
  store float %2, ptr %9, align 8, !tbaa !126
  %10 = getelementptr inbounds nuw i8, ptr %0, i64 20
  store float %3, ptr %10, align 4, !tbaa !128
  %11 = getelementptr inbounds nuw i8, ptr %0, i64 28
  store float %4, ptr %11, align 4, !tbaa !129
  ret void
}